; Function Attrs: mustprogress nofree nounwind memory(read, inaccessiblemem: write) uwtable
define internal noundef zeroext i1 @_ZL8isHiddenRKN5clang4ento19CheckerRegistryDataEN4llvm9StringRefE(ptr nocapture noundef nonnull readonly align 8 dereferenceable(168) %0, ptr nocapture readonly %1, i64 %2) #8 {
  %4 = getelementptr inbounds nuw i8, ptr %0, i64 40
  %5 = load ptr, ptr %4, align 8
  %6 = getelementptr inbounds i8, ptr %0, i64 48
  %7 = load ptr, ptr %6, align 8
  %8 = icmp eq i64 %2, 0
  br label %9

9:                                                ; preds = %_ZN4llvmeqENS_9StringRefES0_.exit.thread13, %3
  %.sroa.09.0 = phi ptr [ %5, %3 ], [ %17, %_ZN4llvmeqENS_9StringRefES0_.exit.thread13 ]
  %10 = icmp ne ptr %.sroa.09.0, %7
  tail call void @llvm.assume(i1 %10)
  %11 = getelementptr inbounds nuw i8, ptr %.sroa.09.0, i64 16
  %.sroa.01.0.copyload = load ptr, ptr %11, align 8
  %.sroa.22.0..sroa_idx = getelementptr inbounds i8, ptr %.sroa.09.0, i64 24
  %.sroa.22.0.copyload = load i64, ptr %.sroa.22.0..sroa_idx, align 8
  %.not.i = icmp eq i64 %.sroa.22.0.copyload, %2
  br i1 %.not.i, label %12, label %_ZN4llvmeqENS_9StringRefES0_.exit.thread13

12:                                               ; preds = %9
  br i1 %8, label %_ZN4llvmeqENS_9StringRefES0_.exit.thread, label %_ZN4llvmeqENS_9StringRefES0_.exit

_ZN4llvmeqENS_9StringRefES0_.exit:                ; preds = %12
  %bcmp.i = tail call i32 @bcmp(ptr %.sroa.01.0.copyload, ptr %1, i64 %2)
  %13 = icmp eq i32 %bcmp.i, 0
  br i1 %13, label %_ZN4llvmeqENS_9StringRefES0_.exit.thread, label %_ZN4llvmeqENS_9StringRefES0_.exit.thread13

_ZN4llvmeqENS_9StringRefES0_.exit.thread:         ; preds = %12, %_ZN4llvmeqENS_9StringRefES0_.exit
  %14 = getelementptr inbounds nuw i8, ptr %.sroa.09.0, i64 80
  %15 = load i8, ptr %14, align 8
  %16 = trunc i8 %15 to i1
  ret i1 %16

_ZN4llvmeqENS_9StringRefES0_.exit.thread13:       ; preds = %9, %_ZN4llvmeqENS_9StringRefES0_.exit
  %17 = getelementptr inbounds i8, ptr %.sroa.09.0, i64 120
  br label %9
}